target datalayout = "e-m:e-p270:32:32-p271:32:32-p272:64:64-i64:64-i128:128-f80:128-n8:16:32:64-S128"
target triple = "x86_64-pc-linux-gnu"

%struct._lv_global_t = type { i8, i8, %struct.lv_ll_t, ptr, ptr, %struct.lv_ll_t, i8, i32, i32, ptr, %struct.lv_ll_t, ptr, %struct.lv_ll_t, ptr, ptr, i32, ptr, i8, i32, i32, ptr, i32, %struct.lv_timer_state_t, %struct.lv_anim_state_t, %struct.lv_tick_state_t, %struct._lv_draw_buf_handlers_t, %struct._lv_draw_buf_handlers_t, %struct._lv_draw_buf_handlers_t, %struct.lv_ll_t, ptr, ptr, %struct.lv_draw_global_info_t, [4 x %struct.lv_draw_sw_mask_radius_circle_dsc_t], ptr, ptr, ptr, %struct.lv_tlsf_state_t, %struct.lv_ll_t, ptr, ptr, %struct.lv_style_t, i64, ptr, i32, ptr }
%struct.lv_timer_state_t = type { %struct.lv_ll_t, i8, i8, i8, i8, i32, i8, i32, i32, i32, i32, ptr, ptr }
%struct.lv_anim_state_t = type { i8, i8, ptr, %struct.lv_ll_t }
%struct.lv_tick_state_t = type { i32, i8, ptr, ptr }
%struct._lv_draw_buf_handlers_t = type { ptr, ptr, ptr, ptr, ptr, ptr }
%struct.lv_draw_global_info_t = type { ptr, i32, i32, i32, i32, i8 }
%struct.lv_draw_sw_mask_radius_circle_dsc_t = type { ptr, ptr, ptr, ptr, i32, i32, i32 }
%struct.lv_tlsf_state_t = type { ptr, i64, i64, %struct.lv_ll_t }
%struct.lv_ll_t = type { i32, ptr, ptr }
%struct.lv_style_t = type { ptr, i32, i8 }
%struct.lv_area_t = type { i32, i32, i32, i32 }
%struct._lv_layer_t = type { ptr, %struct.lv_area_t, i32, %struct.lv_area_t, %struct.lv_area_t, i8, i32, ptr, ptr, ptr, i8, ptr }
%struct._lv_draw_buf_t = type { %struct.lv_image_header_t, i32, ptr, ptr, ptr }
%struct.lv_image_header_t = type <{ i64, i32 }>

@lv_global = external global %struct._lv_global_t, align 8

; Function Attrs: nounwind uwtable
define ptr @lv_draw_layer_alloc_buf(ptr noundef %0) #0 {
  %2 = alloca ptr, align 8
  %3 = alloca ptr, align 8
  %4 = alloca i32, align 4
  %5 = alloca i32, align 4
  %6 = alloca i32, align 4
  %7 = alloca i32, align 4
  store ptr %0, ptr %3, align 8, !tbaa !39
  %8 = load ptr, ptr %3, align 8, !tbaa !39
  %9 = getelementptr inbounds nuw %struct._lv_layer_t, ptr %8, i32 0, i32 0
  %10 = load ptr, ptr %9, align 8, !tbaa !98
  %11 = icmp ne ptr %10, null
  br i1 %11, label %12, label %18

12:                                               ; preds = %1
  %13 = load ptr, ptr %3, align 8, !tbaa !39
  %14 = getelementptr inbounds nuw %struct._lv_layer_t, ptr %13, i32 0, i32 0
  %15 = load ptr, ptr %14, align 8, !tbaa !98
  %16 = getelementptr inbounds nuw %struct._lv_draw_buf_t, ptr %15, i32 0, i32 2
  %17 = load ptr, ptr %16, align 8, !tbaa !119
  store ptr %17, ptr %2, align 8
  br label %70

18:                                               ; preds = %1
  call void @llvm.lifetime.start.p0(i64 4, ptr %4) #5
  %19 = load ptr, ptr %3, align 8, !tbaa !39
  %20 = getelementptr inbounds nuw %struct._lv_layer_t, ptr %19, i32 0, i32 1
  %21 = call i32 @lv_area_get_width(ptr noundef %20)
  store i32 %21, ptr %4, align 4, !tbaa !45
  call void @llvm.lifetime.start.p0(i64 4, ptr %5) #5
  %22 = load ptr, ptr %3, align 8, !tbaa !39
  %23 = getelementptr inbounds nuw %struct._lv_layer_t, ptr %22, i32 0, i32 1
  %24 = call i32 @lv_area_get_height(ptr noundef %23)
  store i32 %24, ptr %5, align 4, !tbaa !45
  call void @llvm.lifetime.start.p0(i64 4, ptr %6) #5
  %25 = load i32, ptr %5, align 4, !tbaa !45
  %26 = load i32, ptr %4, align 4, !tbaa !45
  %27 = load ptr, ptr %3, align 8, !tbaa !39
  %28 = getelementptr inbounds nuw %struct._lv_layer_t, ptr %27, i32 0, i32 2
  %29 = load i32, ptr %28, align 8, !tbaa !116
  %30 = call i32 @lv_draw_buf_width_to_stride(i32 noundef %26, i32 noundef %29)
  %31 = mul i32 %25, %30
  store i32 %31, ptr %6, align 4, !tbaa !45
  %32 = load i32, ptr %4, align 4, !tbaa !45
  %33 = load i32, ptr %5, align 4, !tbaa !45
  %34 = load ptr, ptr %3, align 8, !tbaa !39
  %35 = getelementptr inbounds nuw %struct._lv_layer_t, ptr %34, i32 0, i32 2
  %36 = load i32, ptr %35, align 8, !tbaa !116
  %37 = call ptr @lv_draw_buf_create(i32 noundef %32, i32 noundef %33, i32 noundef %36, i32 noundef 0)
  %38 = load ptr, ptr %3, align 8, !tbaa !39
  %39 = getelementptr inbounds nuw %struct._lv_layer_t, ptr %38, i32 0, i32 0
  store ptr %37, ptr %39, align 8, !tbaa !98
  %40 = load ptr, ptr %3, align 8, !tbaa !39
  %41 = getelementptr inbounds nuw %struct._lv_layer_t, ptr %40, i32 0, i32 0
  %42 = load ptr, ptr %41, align 8, !tbaa !98
  %43 = icmp eq ptr %42, null
  br i1 %43, label %44, label %48

44:                                               ; preds = %18
  br label %45

45:                                               ; preds = %44
  br label %46

46:                                               ; preds = %45
  br label %47

47:                                               ; preds = %46
  store ptr null, ptr %2, align 8
  store i32 1, ptr %7, align 4
  br label %69

48:                                               ; preds = %18
  %49 = load i32, ptr %6, align 4, !tbaa !45
  %50 = load i32, ptr getelementptr inbounds nuw (%struct.lv_draw_global_info_t, ptr getelementptr inbounds nuw (%struct._lv_global_t, ptr @lv_global, i32 0, i32 31), i32 0, i32 2), align 4, !tbaa !99
  %51 = add i32 %50, %49
  store i32 %51, ptr getelementptr inbounds nuw (%struct.lv_draw_global_info_t, ptr getelementptr inbounds nuw (%struct._lv_global_t, ptr @lv_global, i32 0, i32 31), i32 0, i32 2), align 4, !tbaa !99
  br label %52

52:                                               ; preds = %48
  br label %53

53:                                               ; preds = %52
  br label %54

54:                                               ; preds = %53
  %55 = load ptr, ptr %3, align 8, !tbaa !39
  %56 = getelementptr inbounds nuw %struct._lv_layer_t, ptr %55, i32 0, i32 2
  %57 = load i32, ptr %56, align 8, !tbaa !116
  %58 = call zeroext i1 @lv_color_format_has_alpha(i32 noundef %57)
  br i1 %58, label %59, label %63

59:                                               ; preds = %54
  %60 = load ptr, ptr %3, align 8, !tbaa !39
  %61 = getelementptr inbounds nuw %struct._lv_layer_t, ptr %60, i32 0, i32 0
  %62 = load ptr, ptr %61, align 8, !tbaa !98
  call void @lv_draw_buf_clear(ptr noundef %62, ptr noundef null)
  br label %63

63:                                               ; preds = %59, %54
  %64 = load ptr, ptr %3, align 8, !tbaa !39
  %65 = getelementptr inbounds nuw %struct._lv_layer_t, ptr %64, i32 0, i32 0
  %66 = load ptr, ptr %65, align 8, !tbaa !98
  %67 = getelementptr inbounds nuw %struct._lv_draw_buf_t, ptr %66, i32 0, i32 2
  %68 = load ptr, ptr %67, align 8, !tbaa !119
  store ptr %68, ptr %2, align 8
  store i32 1, ptr %7, align 4
  br label %69

69:                                               ; preds = %63, %47
  call void @llvm.lifetime.end.p0(i64 4, ptr %6) #5
  call void @llvm.lifetime.end.p0(i64 4, ptr %5) #5
  call void @llvm.lifetime.end.p0(i64 4, ptr %4) #5
  br label %70

70:                                               ; preds = %69, %12
  %71 = load ptr, ptr %2, align 8
  ret ptr %71
}