; Function Attrs: nounwind uwtable
define ptr @lv_draw_layer_alloc_buf(ptr noundef %0) local_unnamed_addr #1 {
  %2 = load ptr, ptr %0, align 8, !tbaa !75
  %.not = icmp eq ptr %2, null
  br i1 %.not, label %3, label %.sink.split

3:                                                ; preds = %1
  %4 = getelementptr inbounds nuw i8, ptr %0, i64 8
  %5 = tail call i32 @lv_area_get_width(ptr noundef nonnull %4) #11
  %6 = tail call i32 @lv_area_get_height(ptr noundef nonnull %4) #11
  %7 = getelementptr inbounds nuw i8, ptr %0, i64 24
  %8 = load i32, ptr %7, align 8, !tbaa !108
  %9 = tail call i32 @lv_draw_buf_width_to_stride(i32 noundef %5, i32 noundef %8) #11
  %10 = load i32, ptr %7, align 8, !tbaa !108
  %11 = tail call ptr @lv_draw_buf_create(i32 noundef %5, i32 noundef %6, i32 noundef %10, i32 noundef 0) #11
  store ptr %11, ptr %0, align 8, !tbaa !75
  %12 = icmp eq ptr %11, null
  br i1 %12, label %25, label %13

13:                                               ; preds = %3
  %14 = mul i32 %9, %6
  %15 = load i32, ptr getelementptr inbounds nuw (i8, ptr @lv_global, i64 548), align 4, !tbaa !76
  %16 = add i32 %15, %14
  store i32 %16, ptr getelementptr inbounds nuw (i8, ptr @lv_global, i64 548), align 4, !tbaa !76
  %17 = load i32, ptr %7, align 8, !tbaa !108
  %18 = tail call zeroext i1 @lv_color_format_has_alpha(i32 noundef %17) #11
  br i1 %18, label %19, label %21

19:                                               ; preds = %13
  %20 = load ptr, ptr %0, align 8, !tbaa !75
  tail call void @lv_draw_buf_clear(ptr noundef %20, ptr noundef null) #11
  br label %21

21:                                               ; preds = %19, %13
  %22 = load ptr, ptr %0, align 8, !tbaa !75
  br label %.sink.split

.sink.split:                                      ; preds = %1, %21
  %.sink17 = phi ptr [ %22, %21 ], [ %2, %1 ]
  %23 = getelementptr inbounds nuw i8, ptr %.sink17, i64 16
  %24 = load ptr, ptr %23, align 8, !tbaa !111
  br label %25

25:                                               ; preds = %.sink.split, %3
  %.0 = phi ptr [ null, %3 ], [ %24, %.sink.split ]
  ret ptr %.0
}